; Function Attrs: nofree norecurse nosync nounwind memory(read, inaccessiblemem: none) uwtable
define dso_local noundef zeroext i1 @grouping_is_hashable(ptr noundef readonly captures(address_is_null) %0) local_unnamed_addr #3 {
  %.not = icmp eq ptr %0, null
  br i1 %.not, label %.critedge, label %.lr.ph

.lr.ph:                                           ; preds = %1
  %2 = getelementptr inbounds nuw i8, ptr %0, i64 4
  %3 = load i32, ptr %2, align 4
  %4 = icmp sgt i32 %3, 0
  br i1 %4, label %.lr.ph26, label %.critedge

.lr.ph26:                                         ; preds = %.lr.ph
  %5 = getelementptr inbounds nuw i8, ptr %0, i64 16
  %6 = load ptr, ptr %5, align 8
  %wide.trip.count = zext nneg i32 %3 to i64
  br label %7

7:                                                ; preds = %7, %.lr.ph26
  %indvars.iv = phi i64 [ 0, %.lr.ph26 ], [ %indvars.iv.next, %7 ]
  %8 = getelementptr inbounds nuw %union.ListCell, ptr %6, i64 %indvars.iv
  %9 = load ptr, ptr %8, align 8
  %10 = getelementptr inbounds nuw i8, ptr %9, i64 18
  %11 = load i8, ptr %10, align 2, !range !4, !noundef !5
  %12 = trunc nuw i8 %11 to i1
  %indvars.iv.next = add nuw nsw i64 %indvars.iv, 1
  %exitcond.not = icmp ne i64 %indvars.iv.next, %wide.trip.count
  %or.cond.not = select i1 %12, i1 %exitcond.not, i1 false
  br i1 %or.cond.not, label %7, label %.critedge

.critedge:                                        ; preds = %7, %.lr.ph, %1
  %.not1417 = phi i1 [ true, %1 ], [ true, %.lr.ph ], [ %12, %7 ]
  ret i1 %.not1417
}